; ModuleID = '7/63.c'
source_filename = "7/63.c"
target datalayout = "e-m:e-p270:32:32-p271:32:32-p272:64:64-i64:64-f80:128-n8:16:32:64-S128"
target triple = "x86_64-pc-linux-gnu"

@.str = private unnamed_addr constant [3 x i8] c"%s\00", align 1

; Function Attrs: noinline nounwind uwtable
define dso_local i32 @main() #0 {
  %1 = alloca i32, align 4
  %2 = alloca [256 x i8], align 16
  %3 = alloca [256 x i8], align 16
  %4 = alloca [256 x i8], align 16
  %5 = alloca i32, align 4
  %6 = alloca i32, align 4
  %7 = alloca i32, align 4
  %8 = alloca i32, align 4
  %9 = alloca i32, align 4
  %10 = alloca i32, align 4
  %11 = alloca i32, align 4
  %12 = alloca i32, align 4
  %13 = alloca i32, align 4
  %14 = alloca [50 x i32], align 16
  %15 = alloca i32, align 4
  %16 = alloca i32, align 4
  %17 = alloca i32, align 4
  store i32 0, i32* %1, align 4
  store i32 0, i32* %17, align 4
  %18 = getelementptr inbounds [256 x i8], [256 x i8]* %2, i64 0, i64 0
  %19 = call i32 (i8*, ...) bitcast (i32 (...)* @gets to i32 (i8*, ...)*)(i8* %18)
  %20 = getelementptr inbounds [256 x i8], [256 x i8]* %3, i64 0, i64 0
  %21 = call i32 (i8*, ...) bitcast (i32 (...)* @gets to i32 (i8*, ...)*)(i8* %20)
  %22 = getelementptr inbounds [256 x i8], [256 x i8]* %4, i64 0, i64 0
  %23 = call i32 (i8*, ...) bitcast (i32 (...)* @gets to i32 (i8*, ...)*)(i8* %22)
  store i32 0, i32* %10, align 4
  %24 = getelementptr inbounds [256 x i8], [256 x i8]* %2, i64 0, i64 0
  %25 = call i64 @strlen(i8* %24) #3
  %26 = trunc i64 %25 to i32
  store i32 %26, i32* %15, align 4
  %27 = getelementptr inbounds [256 x i8], [256 x i8]* %3, i64 0, i64 0
  %28 = call i64 @strlen(i8* %27) #3
  %29 = trunc i64 %28 to i32
  store i32 %29, i32* %16, align 4
  store i32 0, i32* %5, align 4
  br label %30

30:                                               ; preds = %66, %0
  %31 = load i32, i32* %5, align 4
  %32 = load i32, i32* %15, align 4
  %33 = icmp slt i32 %31, %32
  br i1 %33, label %34, label %69

34:                                               ; preds = %30
  store i32 0, i32* %11, align 4
  store i32 0, i32* %6, align 4
  br label %35

35:                                               ; preds = %57, %34
  %36 = load i32, i32* %6, align 4
  %37 = load i32, i32* %16, align 4
  %38 = icmp slt i32 %36, %37
  br i1 %38, label %39, label %60

39:                                               ; preds = %35
  %40 = load i32, i32* %5, align 4
  %41 = load i32, i32* %6, align 4
  %42 = add nsw i32 %40, %41
  %43 = sext i32 %42 to i64
  %44 = getelementptr inbounds [256 x i8], [256 x i8]* %2, i64 0, i64 %43
  %45 = load i8, i8* %44, align 1
  %46 = sext i8 %45 to i32
  %47 = load i32, i32* %6, align 4
  %48 = sext i32 %47 to i64
  %49 = getelementptr inbounds [256 x i8], [256 x i8]* %3, i64 0, i64 %48
  %50 = load i8, i8* %49, align 1
  %51 = sext i8 %50 to i32
  %52 = icmp eq i32 %46, %51
  br i1 %52, label %53, label %56

53:                                               ; preds = %39
  %54 = load i32, i32* %11, align 4
  %55 = add nsw i32 %54, 1
  store i32 %55, i32* %11, align 4
  br label %56

56:                                               ; preds = %53, %39
  br label %57

57:                                               ; preds = %56
  %58 = load i32, i32* %6, align 4
  %59 = add nsw i32 %58, 1
  store i32 %59, i32* %6, align 4
  br label %35

60:                                               ; preds = %35
  %61 = load i32, i32* %11, align 4
  %62 = load i32, i32* %16, align 4
  %63 = icmp eq i32 %61, %62
  br i1 %63, label %64, label %65

64:                                               ; preds = %60
  br label %69

65:                                               ; preds = %60
  br label %66

66:                                               ; preds = %65
  %67 = load i32, i32* %5, align 4
  %68 = add nsw i32 %67, 1
  store i32 %68, i32* %5, align 4
  br label %30

69:                                               ; preds = %64, %30
  %70 = load i32, i32* %11, align 4
  %71 = load i32, i32* %16, align 4
  %72 = icmp eq i32 %70, %71
  br i1 %72, label %73, label %95

73:                                               ; preds = %69
  %74 = load i32, i32* %5, align 4
  store i32 %74, i32* %6, align 4
  br label %75

75:                                               ; preds = %91, %73
  %76 = load i32, i32* %6, align 4
  %77 = load i32, i32* %16, align 4
  %78 = load i32, i32* %5, align 4
  %79 = add nsw i32 %77, %78
  %80 = icmp slt i32 %76, %79
  br i1 %80, label %81, label %94

81:                                               ; preds = %75
  %82 = load i32, i32* %6, align 4
  %83 = load i32, i32* %5, align 4
  %84 = sub nsw i32 %82, %83
  %85 = sext i32 %84 to i64
  %86 = getelementptr inbounds [256 x i8], [256 x i8]* %4, i64 0, i64 %85
  %87 = load i8, i8* %86, align 1
  %88 = load i32, i32* %6, align 4
  %89 = sext i32 %88 to i64
  %90 = getelementptr inbounds [256 x i8], [256 x i8]* %2, i64 0, i64 %89
  store i8 %87, i8* %90, align 1
  br label %91

91:                                               ; preds = %81
  %92 = load i32, i32* %6, align 4
  %93 = add nsw i32 %92, 1
  store i32 %93, i32* %6, align 4
  br label %75

94:                                               ; preds = %75
  br label %95

95:                                               ; preds = %94, %69
  %96 = getelementptr inbounds [256 x i8], [256 x i8]* %2, i64 0, i64 0
  %97 = call i32 (i8*, ...) @printf(i8* getelementptr inbounds ([3 x i8], [3 x i8]* @.str, i64 0, i64 0), i8* %96)
  ret i32 0
}

declare dso_local i32 @gets(...) #1

; Function Attrs: nounwind readonly
declare dso_local i64 @strlen(i8*) #2

declare dso_local i32 @printf(i8*, ...) #1


!llvm.module.flags = !{!0}
!llvm.ident = !{!1}

!0 = !{i32 1, !"wchar_size", i32 4}
!1 = !{!"clang version 10.0.0-4ubuntu1 "}
